#include <math.h>
#include <stdio.h>
#include <stdlib.h>
#include <string.h>

main()
{
 int s,y,i,j,k,n,m,t,q;
 scanf("%d",&t);
 
 //printf("%d\n",t); 
 for(q=0;q<t;q++)
 { s=0;
 y=0;
 scanf("%d %d",&m,&n);
 int a[m][n];
    for(i=0;i<m;i++)
  {
    for(j=0;j<n;j++)
    {
     scanf("%d",&a[i][j]);// printf("%d\n",a[i][j]);             
    }                
  }
  for(i=0;i<n;i++)
  {
   s=a[0][i]+a[m-1][i]+s; //printf("%d\n",s);                 
  }
  for(i=1;i<m-1;i++)
  {
   y=a[i][0]+a[i][n-1]+y; //printf("%d\n",y);                   
  }
  //k=s+y;
   printf("%d\n",(s+y));              
 }
 getchar();
 getchar();
 getchar(); 
   getchar();
 getchar();
 getchar();   
}