; ModuleID = '6/3560.c'
source_filename = "6/3560.c"
target datalayout = "e-m:e-p270:32:32-p271:32:32-p272:64:64-i64:64-f80:128-n8:16:32:64-S128"
target triple = "x86_64-pc-linux-gnu"

@.str = private unnamed_addr constant [3 x i8] c"%d\00", align 1
@.str.1 = private unnamed_addr constant [6 x i8] c"%d %d\00", align 1
@.str.2 = private unnamed_addr constant [4 x i8] c"%d\0A\00", align 1

; Function Attrs: noinline nounwind uwtable
define dso_local i32 @main() #0 {
  %1 = alloca i32, align 4
  %2 = alloca i32, align 4
  %3 = alloca i32, align 4
  %4 = alloca i32, align 4
  %5 = alloca i32, align 4
  %6 = alloca i32, align 4
  %7 = alloca i32, align 4
  %8 = alloca i32, align 4
  %9 = alloca i32, align 4
  %10 = alloca i32, align 4
  %11 = alloca i8*, align 8
  %12 = alloca i64, align 8
  %13 = alloca i64, align 8
  store i32 0, i32* %1, align 4
  %14 = call i32 (i8*, ...) @__isoc99_scanf(i8* getelementptr inbounds ([3 x i8], [3 x i8]* @.str, i64 0, i64 0), i32* %9)
  store i32 0, i32* %10, align 4
  br label %15

15:                                               ; preds = %114, %0
  %16 = load i32, i32* %10, align 4
  %17 = load i32, i32* %9, align 4
  %18 = icmp slt i32 %16, %17
  br i1 %18, label %19, label %117

19:                                               ; preds = %15
  store i32 0, i32* %2, align 4
  store i32 0, i32* %3, align 4
  %20 = call i32 (i8*, ...) @__isoc99_scanf(i8* getelementptr inbounds ([6 x i8], [6 x i8]* @.str.1, i64 0, i64 0), i32* %8, i32* %7)
  %21 = load i32, i32* %8, align 4
  %22 = zext i32 %21 to i64
  %23 = load i32, i32* %7, align 4
  %24 = zext i32 %23 to i64
  %25 = call i8* @llvm.stacksave()
  store i8* %25, i8** %11, align 8
  %26 = mul nuw i64 %22, %24
  %27 = alloca i32, i64 %26, align 16
  store i64 %22, i64* %12, align 8
  store i64 %24, i64* %13, align 8
  store i32 0, i32* %4, align 4
  br label %28

28:                                               ; preds = %50, %19
  %29 = load i32, i32* %4, align 4
  %30 = load i32, i32* %8, align 4
  %31 = icmp slt i32 %29, %30
  br i1 %31, label %32, label %53

32:                                               ; preds = %28
  store i32 0, i32* %5, align 4
  br label %33

33:                                               ; preds = %46, %32
  %34 = load i32, i32* %5, align 4
  %35 = load i32, i32* %7, align 4
  %36 = icmp slt i32 %34, %35
  br i1 %36, label %37, label %49

37:                                               ; preds = %33
  %38 = load i32, i32* %4, align 4
  %39 = sext i32 %38 to i64
  %40 = mul nsw i64 %39, %24
  %41 = getelementptr inbounds i32, i32* %27, i64 %40
  %42 = load i32, i32* %5, align 4
  %43 = sext i32 %42 to i64
  %44 = getelementptr inbounds i32, i32* %41, i64 %43
  %45 = call i32 (i8*, ...) @__isoc99_scanf(i8* getelementptr inbounds ([3 x i8], [3 x i8]* @.str, i64 0, i64 0), i32* %44)
  br label %46

46:                                               ; preds = %37
  %47 = load i32, i32* %5, align 4
  %48 = add nsw i32 %47, 1
  store i32 %48, i32* %5, align 4
  br label %33

49:                                               ; preds = %33
  br label %50

50:                                               ; preds = %49
  %51 = load i32, i32* %4, align 4
  %52 = add nsw i32 %51, 1
  store i32 %52, i32* %4, align 4
  br label %28

53:                                               ; preds = %28
  store i32 0, i32* %4, align 4
  br label %54

54:                                               ; preds = %77, %53
  %55 = load i32, i32* %4, align 4
  %56 = load i32, i32* %7, align 4
  %57 = icmp slt i32 %55, %56
  br i1 %57, label %58, label %80

58:                                               ; preds = %54
  %59 = mul nsw i64 0, %24
  %60 = getelementptr inbounds i32, i32* %27, i64 %59
  %61 = load i32, i32* %4, align 4
  %62 = sext i32 %61 to i64
  %63 = getelementptr inbounds i32, i32* %60, i64 %62
  %64 = load i32, i32* %63, align 4
  %65 = load i32, i32* %8, align 4
  %66 = sub nsw i32 %65, 1
  %67 = sext i32 %66 to i64
  %68 = mul nsw i64 %67, %24
  %69 = getelementptr inbounds i32, i32* %27, i64 %68
  %70 = load i32, i32* %4, align 4
  %71 = sext i32 %70 to i64
  %72 = getelementptr inbounds i32, i32* %69, i64 %71
  %73 = load i32, i32* %72, align 4
  %74 = add nsw i32 %64, %73
  %75 = load i32, i32* %2, align 4
  %76 = add nsw i32 %74, %75
  store i32 %76, i32* %2, align 4
  br label %77

77:                                               ; preds = %58
  %78 = load i32, i32* %4, align 4
  %79 = add nsw i32 %78, 1
  store i32 %79, i32* %4, align 4
  br label %54

80:                                               ; preds = %54
  store i32 1, i32* %4, align 4
  br label %81

81:                                               ; preds = %105, %80
  %82 = load i32, i32* %4, align 4
  %83 = load i32, i32* %8, align 4
  %84 = sub nsw i32 %83, 1
  %85 = icmp slt i32 %82, %84
  br i1 %85, label %86, label %108

86:                                               ; preds = %81
  %87 = load i32, i32* %4, align 4
  %88 = sext i32 %87 to i64
  %89 = mul nsw i64 %88, %24
  %90 = getelementptr inbounds i32, i32* %27, i64 %89
  %91 = getelementptr inbounds i32, i32* %90, i64 0
  %92 = load i32, i32* %91, align 4
  %93 = load i32, i32* %4, align 4
  %94 = sext i32 %93 to i64
  %95 = mul nsw i64 %94, %24
  %96 = getelementptr inbounds i32, i32* %27, i64 %95
  %97 = load i32, i32* %7, align 4
  %98 = sub nsw i32 %97, 1
  %99 = sext i32 %98 to i64
  %100 = getelementptr inbounds i32, i32* %96, i64 %99
  %101 = load i32, i32* %100, align 4
  %102 = add nsw i32 %92, %101
  %103 = load i32, i32* %3, align 4
  %104 = add nsw i32 %102, %103
  store i32 %104, i32* %3, align 4
  br label %105

105:                                              ; preds = %86
  %106 = load i32, i32* %4, align 4
  %107 = add nsw i32 %106, 1
  store i32 %107, i32* %4, align 4
  br label %81

108:                                              ; preds = %81
  %109 = load i32, i32* %2, align 4
  %110 = load i32, i32* %3, align 4
  %111 = add nsw i32 %109, %110
  %112 = call i32 (i8*, ...) @printf(i8* getelementptr inbounds ([4 x i8], [4 x i8]* @.str.2, i64 0, i64 0), i32 %111)
  %113 = load i8*, i8** %11, align 8
  call void @llvm.stackrestore(i8* %113)
  br label %114

114:                                              ; preds = %108
  %115 = load i32, i32* %10, align 4
  %116 = add nsw i32 %115, 1
  store i32 %116, i32* %10, align 4
  br label %15

117:                                              ; preds = %15
  %118 = call i32 @getchar()
  %119 = call i32 @getchar()
  %120 = call i32 @getchar()
  %121 = call i32 @getchar()
  %122 = call i32 @getchar()
  %123 = call i32 @getchar()
  %124 = load i32, i32* %1, align 4
  ret i32 %124
}

declare dso_local i32 @__isoc99_scanf(i8*, ...) #1

; Function Attrs: nounwind
declare i8* @llvm.stacksave() #2

declare dso_local i32 @printf(i8*, ...) #1

; Function Attrs: nounwind
declare void @llvm.stackrestore(i8*) #2

declare dso_local i32 @getchar() #1


!llvm.module.flags = !{!0}
!llvm.ident = !{!1}

!0 = !{i32 1, !"wchar_size", i32 4}
!1 = !{!"clang version 10.0.0-4ubuntu1 "}
